target datalayout = "e-m:e-p270:32:32-p271:32:32-p272:64:64-i64:64-i128:128-f80:128-n8:16:32:64-S128"
target triple = "x86_64-pc-linux-gnu"

%"class.llvm::Triple" = type { %"class.std::__cxx11::basic_string", i32, i32, i32, i32, i32, i32 }
%"class.std::__cxx11::basic_string" = type { %"struct.std::__cxx11::basic_string<char>::_Alloc_hider", i64, %union.anon }
%"struct.std::__cxx11::basic_string<char>::_Alloc_hider" = type { ptr }
%union.anon = type { i64, [8 x i8] }

; Function Attrs: mustprogress nounwind uwtable
define linkonce_odr hidden noundef i32 @_ZNK4llvm6Triple14getEnvironmentEv(ptr noundef nonnull align 8 dereferenceable(56) %0) #0 comdat align 2 {
  %2 = alloca ptr, align 8
  store ptr %0, ptr %2, align 8
  %3 = load ptr, ptr %2, align 8
  %4 = getelementptr inbounds nuw %"class.llvm::Triple", ptr %3, i32 0, i32 5
  %5 = load i32, ptr %4, align 8
  ret i32 %5
}

; Function Attrs: mustprogress nounwind uwtable
define linkonce_odr hidden noundef zeroext i1 @_ZNK4llvm6Triple22isSimulatorEnvironmentEv(ptr noundef nonnull align 8 dereferenceable(56) %0) #0 comdat align 2 {
  %2 = alloca ptr, align 8
  store ptr %0, ptr %2, align 8
  %3 = load ptr, ptr %2, align 8
  %4 = call noundef i32 @_ZNK4llvm6Triple14getEnvironmentEv(ptr noundef nonnull align 8 dereferenceable(56) %3)
  %5 = icmp eq i32 %4, 23
  ret i1 %5
}

; Function Attrs: mustprogress nounwind uwtable
define linkonce_odr hidden noundef i32 @_ZNK4llvm6Triple5getOSEv(ptr noundef nonnull align 8 dereferenceable(56) %0) #0 comdat align 2 {
  %2 = alloca ptr, align 8
  store ptr %0, ptr %2, align 8
  %3 = load ptr, ptr %2, align 8
  %4 = getelementptr inbounds nuw %"class.llvm::Triple", ptr %3, i32 0, i32 4
  %5 = load i32, ptr %4, align 4
  ret i32 %5
}

; Function Attrs: mustprogress nounwind uwtable
define dso_local noundef i32 @_ZN4llvm5MachO17mapToPlatformTypeERKNS_6TripleE(ptr noundef nonnull align 8 dereferenceable(56) %0) #0 {
  %2 = alloca i32, align 4
  %3 = alloca ptr, align 8
  store ptr %0, ptr %3, align 8
  %4 = load ptr, ptr %3, align 8
  %5 = call noundef i32 @_ZNK4llvm6Triple5getOSEv(ptr noundef nonnull align 8 dereferenceable(56) %4)
  switch i32 %5, label %6 [
    i32 9, label %7
    i32 5, label %8
    i32 26, label %18
    i32 27, label %22
    i32 28, label %26
    i32 29, label %27
    i32 30, label %28
  ]

6:                                                ; preds = %1
  store i32 0, ptr %2, align 4
  br label %32

7:                                                ; preds = %1
  store i32 1, ptr %2, align 4
  br label %32

8:                                                ; preds = %1
  %9 = load ptr, ptr %3, align 8
  %10 = call noundef zeroext i1 @_ZNK4llvm6Triple22isSimulatorEnvironmentEv(ptr noundef nonnull align 8 dereferenceable(56) %9)
  br i1 %10, label %11, label %12

11:                                               ; preds = %8
  store i32 7, ptr %2, align 4
  br label %32

12:                                               ; preds = %8
  %13 = load ptr, ptr %3, align 8
  %14 = call noundef i32 @_ZNK4llvm6Triple14getEnvironmentEv(ptr noundef nonnull align 8 dereferenceable(56) %13)
  %15 = icmp eq i32 %14, 24
  br i1 %15, label %16, label %17

16:                                               ; preds = %12
  store i32 6, ptr %2, align 4
  br label %32

17:                                               ; preds = %12
  store i32 2, ptr %2, align 4
  br label %32

18:                                               ; preds = %1
  %19 = load ptr, ptr %3, align 8
  %20 = call noundef zeroext i1 @_ZNK4llvm6Triple22isSimulatorEnvironmentEv(ptr noundef nonnull align 8 dereferenceable(56) %19)
  %21 = select i1 %20, i32 8, i32 3
  store i32 %21, ptr %2, align 4
  br label %32

22:                                               ; preds = %1
  %23 = load ptr, ptr %3, align 8
  %24 = call noundef zeroext i1 @_ZNK4llvm6Triple22isSimulatorEnvironmentEv(ptr noundef nonnull align 8 dereferenceable(56) %23)
  %25 = select i1 %24, i32 9, i32 4
  store i32 %25, ptr %2, align 4
  br label %32

26:                                               ; preds = %1
  store i32 5, ptr %2, align 4
  br label %32

27:                                               ; preds = %1
  store i32 10, ptr %2, align 4
  br label %32

28:                                               ; preds = %1
  %29 = load ptr, ptr %3, align 8
  %30 = call noundef zeroext i1 @_ZNK4llvm6Triple22isSimulatorEnvironmentEv(ptr noundef nonnull align 8 dereferenceable(56) %29)
  %31 = select i1 %30, i32 12, i32 11
  store i32 %31, ptr %2, align 4
  br label %32

32:                                               ; preds = %28, %27, %26, %22, %18, %17, %16, %11, %7, %6
  %33 = load i32, ptr %2, align 4
  ret i32 %33
}