; Function Attrs: mustprogress nofree norecurse nosync nounwind willreturn memory(argmem: read) uwtable
define dso_local noundef range(i32 0, 13) i32 @_ZN4llvm5MachO17mapToPlatformTypeERKNS_6TripleE(ptr nocapture noundef nonnull readonly align 8 dereferenceable(56) %0) local_unnamed_addr #1 {
  %2 = getelementptr inbounds nuw i8, ptr %0, i64 44
  %3 = load i32, ptr %2, align 4
  switch i32 %3, label %28 [
    i32 9, label %4
    i32 5, label %5
    i32 26, label %11
    i32 27, label %16
    i32 28, label %21
    i32 29, label %22
    i32 30, label %23
  ]

4:                                                ; preds = %1
  br label %28

5:                                                ; preds = %1
  %6 = getelementptr inbounds nuw i8, ptr %0, i64 48
  %7 = load i32, ptr %6, align 8
  %8 = icmp eq i32 %7, 23
  br i1 %8, label %28, label %9

9:                                                ; preds = %5
  %10 = icmp eq i32 %7, 24
  %. = select i1 %10, i32 6, i32 2
  br label %28

11:                                               ; preds = %1
  %12 = getelementptr inbounds nuw i8, ptr %0, i64 48
  %13 = load i32, ptr %12, align 8
  %14 = icmp eq i32 %13, 23
  %15 = select i1 %14, i32 8, i32 3
  br label %28

16:                                               ; preds = %1
  %17 = getelementptr inbounds nuw i8, ptr %0, i64 48
  %18 = load i32, ptr %17, align 8
  %19 = icmp eq i32 %18, 23
  %20 = select i1 %19, i32 9, i32 4
  br label %28

21:                                               ; preds = %1
  br label %28

22:                                               ; preds = %1
  br label %28

23:                                               ; preds = %1
  %24 = getelementptr inbounds nuw i8, ptr %0, i64 48
  %25 = load i32, ptr %24, align 8
  %26 = icmp eq i32 %25, 23
  %27 = select i1 %26, i32 12, i32 11
  br label %28

28:                                               ; preds = %9, %5, %1, %23, %22, %21, %16, %11, %4
  %.0 = phi i32 [ %27, %23 ], [ 10, %22 ], [ 5, %21 ], [ %20, %16 ], [ %15, %11 ], [ 1, %4 ], [ 0, %1 ], [ 7, %5 ], [ %., %9 ]
  ret i32 %.0
}